; Function Attrs: mustprogress nofree norecurse nosync nounwind willreturn memory(argmem: write) uwtable
define hidden void @_ZN4cvc58internal6theory5arith6linear7NodeLogC2EPNS3_7TreeLogEPS4_i(ptr noundef nonnull align 8 dereferenceable(200) initializes((0, 4), (8, 48)) %0, ptr noundef %1, ptr noundef %2, i32 noundef %3) unnamed_addr #8 align 2 personality ptr @__gxx_personality_v0 {
  store i32 %3, ptr %0, align 8, !tbaa !121
  %5 = getelementptr inbounds nuw i8, ptr %0, i64 8
  store ptr %2, ptr %5, align 8, !tbaa !131
  %6 = getelementptr inbounds nuw i8, ptr %0, i64 16
  store ptr %1, ptr %6, align 8, !tbaa !132
  %7 = getelementptr inbounds nuw i8, ptr %0, i64 24
  %8 = getelementptr inbounds nuw i8, ptr %0, i64 32
  %9 = getelementptr inbounds nuw i8, ptr %0, i64 48
  tail call void @llvm.memset.p0.i64(ptr noundef nonnull align 8 dereferenceable(24) %7, i8 0, i64 24, i1 false)
  store ptr %8, ptr %9, align 8, !tbaa !3
  %10 = getelementptr inbounds nuw i8, ptr %0, i64 56
  store ptr %8, ptr %10, align 8, !tbaa !122
  %11 = getelementptr inbounds nuw i8, ptr %0, i64 64
  %12 = getelementptr inbounds nuw i8, ptr %0, i64 80
  %13 = getelementptr inbounds nuw i8, ptr %0, i64 96
  tail call void @llvm.memset.p0.i64(ptr noundef nonnull align 8 dereferenceable(32) %11, i8 0, i64 32, i1 false)
  store ptr %12, ptr %13, align 8, !tbaa !3
  %14 = getelementptr inbounds nuw i8, ptr %0, i64 104
  store ptr %12, ptr %14, align 8, !tbaa !122
  %15 = getelementptr inbounds nuw i8, ptr %0, i64 112
  store i64 0, ptr %15, align 8, !tbaa !123
  %16 = getelementptr inbounds nuw i8, ptr %0, i64 120
  store i32 0, ptr %16, align 8, !tbaa !124
  %17 = getelementptr inbounds nuw i8, ptr %0, i64 124
  store i32 -1, ptr %17, align 4, !tbaa !101
  %18 = getelementptr inbounds nuw i8, ptr %0, i64 128
  store double 0.000000e+00, ptr %18, align 8, !tbaa !125
  %19 = getelementptr inbounds nuw i8, ptr %0, i64 136
  store i32 -1, ptr %19, align 8, !tbaa !126
  %20 = getelementptr inbounds nuw i8, ptr %0, i64 140
  store i32 -1, ptr %20, align 4, !tbaa !127
  %21 = getelementptr inbounds nuw i8, ptr %0, i64 144
  %22 = getelementptr inbounds nuw i8, ptr %0, i64 176
  store i64 0, ptr %22, align 8
  %23 = getelementptr inbounds nuw i8, ptr %0, i64 192
  store ptr %23, ptr %21, align 8, !tbaa !128
  %24 = getelementptr inbounds nuw i8, ptr %0, i64 152
  store i64 1, ptr %24, align 8, !tbaa !129
  %25 = getelementptr inbounds nuw i8, ptr %0, i64 160
  %26 = getelementptr inbounds nuw i8, ptr %0, i64 176
  tail call void @llvm.memset.p0.i64(ptr noundef nonnull align 8 dereferenceable(16) %25, i8 0, i64 16, i1 false)
  store float 1.000000e+00, ptr %26, align 8, !tbaa !130
  %27 = getelementptr inbounds nuw i8, ptr %0, i64 184
  tail call void @llvm.memset.p0.i64(ptr noundef nonnull align 8 dereferenceable(16) %27, i8 0, i64 16, i1 false)
  ret void
}